; Function Attrs: mustprogress nofree norecurse nosync nounwind willreturn memory(read, inaccessiblemem: none) uwtable
define noundef zeroext i1 @_ZNK9grpc_core12EndpointList28AllEndpointsSeenInitialStateEv(ptr nocapture noundef nonnull readonly align 8 dereferenceable(56) %this) local_unnamed_addr #7 align 2 {
entry:
  %endpoints_ = getelementptr inbounds i8, ptr %this, i64 32
  %0 = load ptr, ptr %endpoints_, align 8
  %_M_finish.i = getelementptr inbounds i8, ptr %this, i64 40
  %1 = load ptr, ptr %_M_finish.i, align 8
  %cmp.i.not4 = icmp eq ptr %0, %1
  br i1 %cmp.i.not4, label %return, label %for.body

for.body:                                         ; preds = %entry, %for.body
  %__begin1.sroa.0.05 = phi ptr [ %incdec.ptr.i, %for.body ], [ %0, %entry ]
  %2 = load ptr, ptr %__begin1.sroa.0.05, align 8
  %connectivity_state_.i = getelementptr inbounds i8, ptr %2, i64 32
  %retval.sroa.0.0.copyload.i = load i64, ptr %connectivity_state_.i, align 8
  %3 = and i64 %retval.sroa.0.0.copyload.i, 4294967296
  %tobool.i.i.not.not = icmp ne i64 %3, 0
  %incdec.ptr.i = getelementptr inbounds i8, ptr %__begin1.sroa.0.05, i64 8
  %cmp.i.not = icmp ne ptr %incdec.ptr.i, %1
  %or.cond.not = select i1 %tobool.i.i.not.not, i1 %cmp.i.not, i1 false
  br i1 %or.cond.not, label %for.body, label %return

return:                                           ; preds = %for.body, %entry
  %cmp.i.not.lcssa = phi i1 [ true, %entry ], [ %tobool.i.i.not.not, %for.body ]
  ret i1 %cmp.i.not.lcssa
}